; ModuleID = 'bench/openssl/original/conf_mall.ll'
source_filename = "bench/openssl/original/conf_mall.ll"
target datalayout = "e-m:e-p270:32:32-p271:32:32-p272:64:64-i64:64-i128:128-f80:128-n8:16:32:64-S128"
target triple = "x86_64-pc-linux-gnu"

; Function Attrs: nounwind uwtable
define void @OPENSSL_load_builtin_modules() local_unnamed_addr #0 {
  tail call void @ASN1_add_oid_module() #2
  tail call void @ASN1_add_stable_module() #2
  tail call void @ENGINE_add_conf_module() #2
  tail call void @EVP_add_alg_module() #2
  tail call void @ossl_config_add_ssl_module() #2
  tail call void @ossl_provider_add_conf_module() #2
  tail call void @ossl_random_add_conf_module() #2
  ret void
}

declare void @ASN1_add_oid_module() local_unnamed_addr #1

declare void @ASN1_add_stable_module() local_unnamed_addr #1

declare void @ENGINE_add_conf_module() local_unnamed_addr #1

declare void @EVP_add_alg_module() local_unnamed_addr #1

declare void @ossl_config_add_ssl_module() local_unnamed_addr #1

declare void @ossl_provider_add_conf_module() local_unnamed_addr #1

declare void @ossl_random_add_conf_module() local_unnamed_addr #1


!llvm.module.flags = !{!0, !1, !2}

!0 = !{i32 1, !"wchar_size", i32 4}
!1 = !{i32 8, !"PIC Level", i32 2}
!2 = !{i32 7, !"uwtable", i32 2}
